target datalayout = "e-m:e-p270:32:32-p271:32:32-p272:64:64-i64:64-i128:128-f80:128-n8:16:32:64-S128"
target triple = "x86_64-pc-linux-gnu"

@color_decorate_slots = internal global [7 x ptr] [ptr null, ptr @.str.33, ptr @.str.34, ptr @.str.35, ptr @.str.36, ptr @.str.37, ptr @.str.38], align 16
@.str.39 = private unnamed_addr constant [6 x i8] c"%s.%s\00", align 1

; Function Attrs: inlinehint nounwind uwtable
define internal void @list_config_item(ptr noundef %0, ptr noundef %1, ptr noundef %2) #2 {
  %4 = alloca ptr, align 8
  %5 = alloca ptr, align 8
  %6 = alloca ptr, align 8
  store ptr %0, ptr %4, align 8, !tbaa !4
  store ptr %1, ptr %5, align 8, !tbaa !9
  store ptr %2, ptr %6, align 8, !tbaa !9
  %7 = load ptr, ptr %4, align 8, !tbaa !4
  %8 = load ptr, ptr %5, align 8, !tbaa !9
  %9 = load ptr, ptr %6, align 8, !tbaa !9
  %10 = call ptr (ptr, ...) @xstrfmt(ptr noundef @.str.39, ptr noundef %8, ptr noundef %9)
  %11 = call ptr @string_list_append_nodup(ptr noundef %7, ptr noundef %10)
  ret void
}

; Function Attrs: nounwind uwtable
define dso_local void @list_config_color_decorate_slots(ptr noundef %0, ptr noundef %1) #0 {
  %3 = alloca ptr, align 8
  %4 = alloca ptr, align 8
  %5 = alloca i64, align 8
  store ptr %0, ptr %3, align 8, !tbaa !4
  store ptr %1, ptr %4, align 8, !tbaa !9
  call void @llvm.lifetime.start.p0(i64 8, ptr %5) #10
  store i64 0, ptr %5, align 8, !tbaa !11
  br label %6

6:                                                ; preds = %22, %2
  %7 = load i64, ptr %5, align 8, !tbaa !11
  %8 = icmp ult i64 %7, 7
  br i1 %8, label %10, label %9

9:                                                ; preds = %6
  call void @llvm.lifetime.end.p0(i64 8, ptr %5) #10
  br label %25

10:                                               ; preds = %6
  %11 = load i64, ptr %5, align 8, !tbaa !11
  %12 = getelementptr inbounds nuw [7 x ptr], ptr @color_decorate_slots, i64 0, i64 %11
  %13 = load ptr, ptr %12, align 8, !tbaa !9
  %14 = icmp ne ptr %13, null
  br i1 %14, label %15, label %21

15:                                               ; preds = %10
  %16 = load ptr, ptr %3, align 8, !tbaa !4
  %17 = load ptr, ptr %4, align 8, !tbaa !9
  %18 = load i64, ptr %5, align 8, !tbaa !11
  %19 = getelementptr inbounds nuw [7 x ptr], ptr @color_decorate_slots, i64 0, i64 %18
  %20 = load ptr, ptr %19, align 8, !tbaa !9
  call void @list_config_item(ptr noundef %16, ptr noundef %17, ptr noundef %20)
  br label %21

21:                                               ; preds = %15, %10
  br label %22

22:                                               ; preds = %21
  %23 = load i64, ptr %5, align 8, !tbaa !11
  %24 = add i64 %23, 1
  store i64 %24, ptr %5, align 8, !tbaa !11
  br label %6, !llvm.loop !13

25:                                               ; preds = %9
  ret void
}